; Function Attrs: mustprogress uwtable
define dso_local noundef nonnull align 8 dereferenceable(88) ptr @_ZN4Luau11TypePackVaraSEONS_7VariantIJNS_9Unifiable5BoundIPKS0_EENS2_5ErrorIS5_EENS_12FreeTypePackENS_15GenericTypePackENS_8TypePackENS_16VariadicTypePackENS_15BlockedTypePackENS_28TypeFunctionInstanceTypePackEEEE(ptr noundef nonnull returned align 8 dereferenceable(88) %0, ptr noundef nonnull align 8 dereferenceable(72) %1) local_unnamed_addr #2 align 2 {
  %.not.i = icmp eq ptr %0, %1
  br i1 %.not.i, label %_ZN4Luau7VariantIJNS_9Unifiable5BoundIPKNS_11TypePackVarEEENS1_5ErrorIS5_EENS_12FreeTypePackENS_15GenericTypePackENS_8TypePackENS_16VariadicTypePackENS_15BlockedTypePackENS_28TypeFunctionInstanceTypePackEEEaSEOSF_.exit, label %3

3:                                                ; preds = %2
  %4 = load i32, ptr %0, align 8, !tbaa !49
  %5 = sext i32 %4 to i64
  %6 = getelementptr inbounds [8 x ptr], ptr @_ZN4Luau7VariantIJNS_9Unifiable5BoundIPKNS_11TypePackVarEEENS1_5ErrorIS5_EENS_12FreeTypePackENS_15GenericTypePackENS_8TypePackENS_16VariadicTypePackENS_15BlockedTypePackENS_28TypeFunctionInstanceTypePackEEE9tableDtorE, i64 0, i64 %5
  %7 = load ptr, ptr %6, align 8, !tbaa !51
  %8 = getelementptr inbounds nuw i8, ptr %0, i64 8
  tail call void %7(ptr noundef nonnull %8)
  %9 = load i32, ptr %1, align 8, !tbaa !49
  store i32 %9, ptr %0, align 8, !tbaa !49
  %10 = sext i32 %9 to i64
  %11 = getelementptr inbounds [8 x ptr], ptr @_ZN4Luau7VariantIJNS_9Unifiable5BoundIPKNS_11TypePackVarEEENS1_5ErrorIS5_EENS_12FreeTypePackENS_15GenericTypePackENS_8TypePackENS_16VariadicTypePackENS_15BlockedTypePackENS_28TypeFunctionInstanceTypePackEEE9tableMoveE, i64 0, i64 %10
  %12 = load ptr, ptr %11, align 8, !tbaa !51
  %13 = getelementptr inbounds nuw i8, ptr %1, i64 8
  tail call void %12(ptr noundef nonnull %8, ptr noundef nonnull %13)
  br label %_ZN4Luau7VariantIJNS_9Unifiable5BoundIPKNS_11TypePackVarEEENS1_5ErrorIS5_EENS_12FreeTypePackENS_15GenericTypePackENS_8TypePackENS_16VariadicTypePackENS_15BlockedTypePackENS_28TypeFunctionInstanceTypePackEEEaSEOSF_.exit

_ZN4Luau7VariantIJNS_9Unifiable5BoundIPKNS_11TypePackVarEEENS1_5ErrorIS5_EENS_12FreeTypePackENS_15GenericTypePackENS_8TypePackENS_16VariadicTypePackENS_15BlockedTypePackENS_28TypeFunctionInstanceTypePackEEEaSEOSF_.exit: ; preds = %2, %3
  ret ptr %0
}